Certificate:
    Data:
        Version: 3 (0x2)
        Serial Number:
            ab:a5:ff:64:d3:78:f1:76
    Signature Algorithm: sha256WithRSAEncryption
        Issuer: C=us, ST=va, O=rev, OU=rev-gcp, CN=trial-node-server
        Validity
            Not Before: Aug 23 07:44:33 2019 GMT
            Not After : Aug 22 07:44:33 2020 GMT
        Subject: C=us, ST=va, L=reston, O=rev, OU=rev-gcp, CN=trial-node-server
        Subject Public Key Info:
            Public Key Algorithm: rsaEncryption
                Public-Key: (2048 bit)
                Modulus:
                    00:9a:a8:bf:7b:3d:b8:d0:19:a1:3e:e4:32:46:53:
                    91:2d:04:65:89:a6:1f:cf:d7:f8:0a:f1:33:f6:3b:
                    69:74:e4:6b:94:34:4f:fd:77:d1:be:3d:b5:16:98:
                    1e:43:37:8f:d7:7d:bb:33:42:e3:22:27:12:1c:7f:
                    12:96:2c:3b:f9:57:41:cf:d7:d9:60:8a:dc:ea:04:
                    f1:5c:d5:02:3e:97:ef:d5:fb:6b:8b:49:5c:4b:45:
                    26:66:fd:ba:b4:67:52:16:c2:f9:af:7c:c3:17:e5:
                    bc:26:9f:de:30:1c:80:e4:92:81:7a:a7:a5:43:02:
                    cb:01:e2:67:2f:7e:07:0c:6e:96:a3:c7:18:29:99:
                    88:7a:ba:52:93:fb:75:e7:a8:52:75:3c:36:18:60:
                    b4:26:ed:c5:b2:ce:3a:63:c3:7a:39:1b:b5:1f:fe:
                    5f:8f:55:df:b2:ba:ce:9f:6b:62:ed:1e:6e:d4:5b:
                    9a:03:59:1b:82:c5:97:f4:43:32:69:4c:c9:c4:cb:
                    48:2a:fd:36:6f:00:39:c7:42:32:3b:77:d4:41:b4:
                    67:be:c9:98:e0:82:1a:ed:e7:f8:4e:fb:d5:a3:93:
                    22:0f:bb:5b:7f:fa:9d:2e:81:b4:05:0a:25:f8:ca:
                    5f:f6:1b:3b:ab:4d:65:e7:b9:c7:b5:6d:a2:cf:45:
                    e1:b5
                Exponent: 65537 (0x10001)
        X509v3 extensions:
            X509v3 Basic Constraints: 
                CA:FALSE
            Netscape Comment: 
                OpenSSL Generated Certificate
            X509v3 Subject Key Identifier: 
                88:78:B7:20:30:B8:F4:3A:AF:45:41:C4:01:41:61:15:F4:9E:F0:5C
            X509v3 Authority Key Identifier: 
                keyid:A3:D3:E2:A3:17:DB:1C:2A:48:1F:CE:2B:52:5A:CD:C4:0B:DB:FE:A5

    Signature Algorithm: sha256WithRSAEncryption
         29:79:08:d5:af:1b:66:84:cd:ab:63:54:de:34:02:67:7a:62:
         bc:f6:38:98:6c:11:41:fa:a9:d1:0b:cb:d6:c9:da:b8:fc:8b:
         d2:b7:3a:84:61:4e:9e:9c:39:af:26:9a:46:6e:32:52:37:be:
         3c:bd:1f:2b:e8:75:1e:29:b8:cb:53:a7:61:60:75:48:26:e7:
         ff:85:c4:ae:55:6d:37:43:df:48:6d:53:d0:0f:71:7e:ed:f3:
         9a:8c:87:ce:fd:19:1a:3c:a8:7d:bb:bf:78:db:ce:2f:73:68:
         d6:fc:ac:78:34:e5:a8:68:a7:95:66:c5:ad:ae:99:1a:ac:a7:
         c7:ad:25:1f:a9:4f:30:83:92:da:c7:2e:98:57:06:dd:df:94:
         6d:ab:37:2e:7d:74:37:6f:85:7f:bd:a2:b3:2b:f5:22:cd:5c:
         83:fe:50:62:3b:17:27:d4:86:a4:8f:3c:fc:5b:83:46:e3:72:
         b6:43:3e:3d:5e:67:2f:e2:9c:3b:cf:ee:b8:ec:a7:c7:4b:0c:
         d9:4d:af:21:a4:36:39:ec:44:a2:a8:94:44:ab:f6:b6:9c:49:
         27:4a:83:3b:b6:6c:d5:78:5f:90:7e:1f:3d:62:b8:d1:f9:c5:
         8f:76:5a:86:db:80:30:f8:84:0a:96:a7:0c:4c:b0:3f:97:21:
         42:e5:5e:a2
-----BEGIN CERTIFICATE-----
MIIDuzCCAqOgAwIBAgIJAKul/2TTePF2MA0GCSqGSIb3DQEBCwUAMFYxCzAJBgNV
BAYTAnVzMQswCQYDVQQIDAJ2YTEMMAoGA1UECgwDcmV2MRAwDgYDVQQLDAdyZXYt
Z2NwMRowGAYDVQQDDBF0cmlhbC1ub2RlLXNlcnZlcjAeFw0xOTA4MjMwNzQ0MzNa
Fw0yMDA4MjIwNzQ0MzNaMGcxCzAJBgNVBAYTAnVzMQswCQYDVQQIDAJ2YTEPMA0G
A1UEBwwGcmVzdG9uMQwwCgYDVQQKDANyZXYxEDAOBgNVBAsMB3Jldi1nY3AxGjAY
BgNVBAMMEXRyaWFsLW5vZGUtc2VydmVyMIIBIjANBgkqhkiG9w0BAQEFAAOCAQ8A
MIIBCgKCAQEAmqi/ez240BmhPuQyRlORLQRliaYfz9f4CvEz9jtpdORrlDRP/XfR
vj21FpgeQzeP1327M0LjIicSHH8Sliw7+VdBz9fZYIrc6gTxXNUCPpfv1ftri0lc
S0UmZv26tGdSFsL5r3zDF+W8Jp/eMByA5JKBeqelQwLLAeJnL34HDG6Wo8cYKZmI
erpSk/t156hSdTw2GGC0Ju3Fss46Y8N6ORu1H/5fj1XfsrrOn2ti7R5u1FuaA1kb
gsWX9EMyaUzJxMtIKv02bwA5x0IyO3fUQbRnvsmY4IIa7ef4TvvVo5MiD7tbf/qd
LoG0BQol+Mpf9hs7q01l57nHtW2iz0XhtQIDAQABo3sweTAJBgNVHRMEAjAAMCwG
CWCGSAGG+EIBDQQfFh1PcGVuU1NMIEdlbmVyYXRlZCBDZXJ0aWZpY2F0ZTAdBgNV
HQ4EFgQUiHi3IDC49DqvRUHEAUFhFfSe8FwwHwYDVR0jBBgwFoAUo9PioxfbHCpI
H84rUlrNxAvb/qUwDQYJKoZIhvcNAQELBQADggEBACl5CNWvG2aEzatjVN40Amd6
Yrz2OJhsEUH6qdELy9bJ2rj8i9K3OoRhTp6cOa8mmkZuMlI3vjy9HyvodR4puMtT
p2FgdUgm5/+FxK5VbTdD30htU9APcX7t85qMh879GRo8qH27v3jbzi9zaNb8rHg0
5ahop5Vmxa2umRqsp8etJR+pTzCDktrHLphXBt3flG2rNy59dDdvhX+9orMr9SLN
XIP+UGI7FyfUhqSPPPxbg0bjcrZDPj1eZy/inDvP7rjsp8dLDNlNryGkNjnsRKKo
lESr9racSSdKgzu2bNV4X5B+Hz1iuNH5xY92WobbgDD4hAqWpwxMsD+XIULlXqI=
-----END CERTIFICATE-----
